; Function Attrs: mustprogress norecurse uwtable
define dso_local noundef i32 @main(i32 noundef %0, ptr noundef %1) local_unnamed_addr #21 personality ptr @__gxx_personality_v0 {
  %3 = alloca i32, align 4
  %4 = alloca %"class.absl::log_internal::LogMessage", align 8
  store i32 %0, ptr %3, align 4, !tbaa !4
  %5 = load volatile i8, ptr @_ZL13volatile_bool, align 1, !tbaa !75, !range !25, !noundef !26
  %6 = trunc nuw i8 %5 to i1
  br i1 %6, label %7, label %10

7:                                                ; preds = %2
  call void @llvm.lifetime.start.p0(i64 16, ptr nonnull %4) #35
  call void @_ZN4absl12log_internal10LogMessageC1EPKciNS1_7InfoTagE(ptr noundef nonnull align 8 dereferenceable(16) %4, ptr noundef nonnull @.str.3, i32 noundef 608) #39
  invoke void @_ZN4absl12log_internal10LogMessage19CopyToEncodedBufferILNS1_10StringTypeE0EEEvSt17basic_string_viewIcSt11char_traitsIcEE(ptr noundef nonnull align 8 dereferenceable(16) %4, i64 0, ptr nonnull @_ZL17kHpageTextPadding)
          to label %_ZN4absl12log_internal10LogMessagelsILi8388608EEERS1_RAT__Kc.exit unwind label %8

_ZN4absl12log_internal10LogMessagelsILi8388608EEERS1_RAT__Kc.exit: ; preds = %7
  call void @_ZN4absl12log_internal10LogMessageD1Ev(ptr noundef nonnull align 8 dereferenceable(16) %4) #41
  call void @llvm.lifetime.end.p0(i64 16, ptr nonnull %4) #35
  br label %10

8:                                                ; preds = %7
  %9 = landingpad { ptr, i32 }
          cleanup
  call void @_ZN4absl12log_internal10LogMessageD1Ev(ptr noundef nonnull align 8 dereferenceable(16) %4) #41
  call void @llvm.lifetime.end.p0(i64 16, ptr nonnull %4) #35
  resume { ptr, i32 } %9

10:                                               ; preds = %_ZN4absl12log_internal10LogMessagelsILi8388608EEERS1_RAT__Kc.exit, %2
  %11 = load ptr, ptr %1, align 8, !tbaa !10
  call void @_ZN4absl20InitializeSymbolizerEPKc(ptr noundef %11)
  call void @_ZN7testing14InitGoogleTestEPiPPc(ptr noundef nonnull %3, ptr noundef nonnull %1)
  call void @TestWithPCInsideInlineFunction()
  call void @TestWithPCInsideNonInlineFunction()
  call void @_Z21TestWithReturnAddressv()
  %12 = call noundef ptr @_ZN7testing8UnitTest11GetInstanceEv()
  %13 = call noundef i32 @_ZN7testing8UnitTest3RunEv(ptr noundef nonnull align 8 dereferenceable(72) %12)
  ret i32 %13
}